   1              		.syntax unified
   2              		.cpu cortex-m3
   3              		.fpu softvfp
   4              		.eabi_attribute 20, 1
   5              		.eabi_attribute 21, 1
   6              		.eabi_attribute 23, 3
   7              		.eabi_attribute 24, 1
   8              		.eabi_attribute 25, 1
   9              		.eabi_attribute 26, 1
  10              		.eabi_attribute 30, 4
  11              		.eabi_attribute 34, 1
  12              		.eabi_attribute 18, 4
  13              		.thumb
  14              		.file	"dfu.c"
  15              		.text
  16              	.Ltext0:
  17              		.cfi_sections	.debug_frame
  18              		.section	.text.dfuInit,"ax",%progbits
  19              		.align	1
  20              		.global	dfuInit
  21              		.thumb
  22              		.thumb_func
  24              	dfuInit:
  25              	.LFB0:
  26              		.file 1 "dfu.c"
   1:dfu.c         **** /* *****************************************************************************
   2:dfu.c         ****  * The MIT License
   3:dfu.c         ****  *
   4:dfu.c         ****  * Copyright (c) 2010 LeafLabs LLC.
   5:dfu.c         ****  *
   6:dfu.c         ****  * Permission is hereby granted, free of charge, to any person obtaining a copy
   7:dfu.c         ****  * of this software and associated documentation files (the "Software"), to deal
   8:dfu.c         ****  * in the Software without restriction, including without limitation the rights
   9:dfu.c         ****  * to use, copy, modify, merge, publish, distribute, sublicense, and/or sell
  10:dfu.c         ****  * copies of the Software, and to permit persons to whom the Software is
  11:dfu.c         ****  * furnished to do so, subject to the following conditions:
  12:dfu.c         ****  *
  13:dfu.c         ****  * The above copyright notice and this permission notice shall be included in
  14:dfu.c         ****  * all copies or substantial portions of the Software.
  15:dfu.c         ****  *
  16:dfu.c         ****  * THE SOFTWARE IS PROVIDED "AS IS", WITHOUT WARRANTY OF ANY KIND, EXPRESS OR
  17:dfu.c         ****  * IMPLIED, INCLUDING BUT NOT LIMITED TO THE WARRANTIES OF MERCHANTABILITY,
  18:dfu.c         ****  * FITNESS FOR A PARTICULAR PURPOSE AND NONINFRINGEMENT. IN NO EVENT SHALL THE
  19:dfu.c         ****  * AUTHORS OR COPYRIGHT HOLDERS BE LIABLE FOR ANY CLAIM, DAMAGES OR OTHER
  20:dfu.c         ****  * LIABILITY, WHETHER IN AN ACTION OF CONTRACT, TORT OR OTHERWISE, ARISING FROM,
  21:dfu.c         ****  * OUT OF OR IN CONNECTION WITH THE SOFTWARE OR THE USE OR OTHER DEALINGS IN
  22:dfu.c         ****  * THE SOFTWARE.
  23:dfu.c         ****  * ****************************************************************************/
  24:dfu.c         **** 
  25:dfu.c         **** /**
  26:dfu.c         ****  *  @file dfu.c
  27:dfu.c         ****  *
  28:dfu.c         ****  *  @brief The principle dfu state machine as well as the data
  29:dfu.c         ****  *  transfer callbacks accessed by the usb library
  30:dfu.c         ****  *
  31:dfu.c         ****  *
  32:dfu.c         ****  */
  33:dfu.c         **** #include "hardware.h"
  34:dfu.c         **** #include "dfu.h"
  35:dfu.c         **** #include "usb.h"
  36:dfu.c         **** 
  37:dfu.c         **** /* DFU globals */
  38:dfu.c         **** static volatile u32 userAppAddr = USER_CODE_RAM; /* default RAM user code location */
  39:dfu.c         **** static volatile u32 userAppEnd = RAM_END;
  40:dfu.c         **** static volatile DFUStatus dfuAppStatus;       /* includes state */
  41:dfu.c         **** volatile dfuUploadTypes_t userUploadType = DFU_UPLOAD_NONE;
  42:dfu.c         **** volatile bool dfuBusy = FALSE;
  43:dfu.c         **** 
  44:dfu.c         **** 
  45:dfu.c         **** //static volatile u8 recvBuffer[wTransferSize] __attribute__((aligned(4)));
  46:dfu.c         **** static volatile u8 recvBuffer[LARGEST_FLASH_PAGE_SIZE] __attribute__((aligned(4)));
  47:dfu.c         **** 
  48:dfu.c         **** static volatile u32 userFirmwareLen = 0;
  49:dfu.c         **** static volatile u16 thisBlockLen = 0;
  50:dfu.c         **** static volatile u16 uploadBlockLen = 0;
  51:dfu.c         **** 
  52:dfu.c         **** 
  53:dfu.c         **** volatile PLOT code_copy_lock;
  54:dfu.c         **** 
  55:dfu.c         **** /* todo: force dfu globals to be singleton to avoid re-inits? */
  56:dfu.c         **** void dfuInit(void) {
  27              		.loc 1 56 0
  28              		.cfi_startproc
  29              		@ args = 0, pretend = 0, frame = 0
  30              		@ frame_needed = 0, uses_anonymous_args = 0
  31              		@ link register save eliminated.
  57:dfu.c         ****     dfuAppStatus.bStatus = OK;
  32              		.loc 1 57 0
  33 0000 0D4A     		ldr	r2, .L2
  34 0002 0023     		movs	r3, #0
  58:dfu.c         ****     dfuAppStatus.bwPollTimeout0 = 0x00;
  59:dfu.c         ****     dfuAppStatus.bwPollTimeout1 = 0x00;
  60:dfu.c         ****     dfuAppStatus.bwPollTimeout2 = 0x00;
  61:dfu.c         ****     dfuAppStatus.bState = dfuIDLE;
  35              		.loc 1 61 0
  36 0004 0221     		movs	r1, #2
  57:dfu.c         ****     dfuAppStatus.bStatus = OK;
  37              		.loc 1 57 0
  38 0006 1370     		strb	r3, [r2]
  58:dfu.c         ****     dfuAppStatus.bwPollTimeout0 = 0x00;
  39              		.loc 1 58 0
  40 0008 5370     		strb	r3, [r2, #1]
  59:dfu.c         ****     dfuAppStatus.bwPollTimeout1 = 0x00;
  41              		.loc 1 59 0
  42 000a 9370     		strb	r3, [r2, #2]
  60:dfu.c         ****     dfuAppStatus.bwPollTimeout2 = 0x00;
  43              		.loc 1 60 0
  44 000c D370     		strb	r3, [r2, #3]
  45              		.loc 1 61 0
  46 000e 1171     		strb	r1, [r2, #4]
  62:dfu.c         ****     dfuAppStatus.iString = 0x00;          /* all strings must be 0x00 until we make them! */
  47              		.loc 1 62 0
  48 0010 5371     		strb	r3, [r2, #5]
  63:dfu.c         ****     userFirmwareLen = 0;
  49              		.loc 1 63 0
  50 0012 0A4A     		ldr	r2, .L2+4
  64:dfu.c         ****     thisBlockLen = 0;;
  65:dfu.c         ****     userAppAddr = USER_CODE_RAM; /* default RAM user code location */
  51              		.loc 1 65 0
  52 0014 0A49     		ldr	r1, .L2+8
  63:dfu.c         ****     userFirmwareLen = 0;
  53              		.loc 1 63 0
  54 0016 1360     		str	r3, [r2]
  64:dfu.c         ****     thisBlockLen = 0;;
  55              		.loc 1 64 0
  56 0018 0A4A     		ldr	r2, .L2+12
  57 001a 1380     		strh	r3, [r2]	@ movhi
  58              		.loc 1 65 0
  59 001c 0A4A     		ldr	r2, .L2+16
  60 001e 1160     		str	r1, [r2]
  66:dfu.c         ****     userAppEnd = RAM_END;
  61              		.loc 1 66 0
  62 0020 0A4A     		ldr	r2, .L2+20
  63 0022 01F58841 		add	r1, r1, #17408
  64 0026 1160     		str	r1, [r2]
  67:dfu.c         ****     userUploadType=DFU_UPLOAD_NONE;
  65              		.loc 1 67 0
  66 0028 094A     		ldr	r2, .L2+24
  68:dfu.c         ****     code_copy_lock = WAIT;
  67              		.loc 1 68 0
  68 002a 0321     		movs	r1, #3
  67:dfu.c         ****     userUploadType=DFU_UPLOAD_NONE;
  69              		.loc 1 67 0
  70 002c 1370     		strb	r3, [r2]
  71              		.loc 1 68 0
  72 002e 094A     		ldr	r2, .L2+28
  73 0030 1170     		strb	r1, [r2]
  69:dfu.c         ****     dfuBusy = FALSE;
  74              		.loc 1 69 0
  75 0032 094A     		ldr	r2, .L2+32
  76 0034 1370     		strb	r3, [r2]
  77 0036 7047     		bx	lr
  78              	.L3:
  79              		.align	2
  80              	.L2:
  81 0038 00000000 		.word	.LANCHOR0
  82 003c 00000000 		.word	.LANCHOR1
  83 0040 000C0020 		.word	536873984
  84 0044 00000000 		.word	.LANCHOR2
  85 0048 00000000 		.word	.LANCHOR3
  86 004c 00000000 		.word	.LANCHOR4
  87 0050 00000000 		.word	.LANCHOR5
  88 0054 00000000 		.word	code_copy_lock
  89 0058 00000000 		.word	.LANCHOR6
  90              		.cfi_endproc
  91              	.LFE0:
  93              		.section	.text.dfuUpdateByReset,"ax",%progbits
  94              		.align	1
  95              		.global	dfuUpdateByReset
  96              		.thumb
  97              		.thumb_func
  99              	dfuUpdateByReset:
 100              	.LFB2:
  70:dfu.c         **** }
  71:dfu.c         **** 
  72:dfu.c         **** 
  73:dfu.c         **** 
  74:dfu.c         **** 
  75:dfu.c         **** bool dfuUpdateByRequest(void) {
  76:dfu.c         ****     /* were using the global pInformation struct from usb_lib here,
  77:dfu.c         ****        see comment in maple_dfu.h around DFUEvent struct */
  78:dfu.c         ****     dfuBusy = TRUE;
  79:dfu.c         **** 
  80:dfu.c         **** 
  81:dfu.c         **** 
  82:dfu.c         ****     u8 startState = dfuAppStatus.bState;
  83:dfu.c         ****     dfuAppStatus.bStatus = OK;
  84:dfu.c         ****     /* often leaner to nest if's then embed a switch/case */
  85:dfu.c         ****     if (startState == dfuIDLE)  {
  86:dfu.c         ****         /*  device running inside DFU mode */
  87:dfu.c         ****         dfuBusy = TRUE; // signals the main loop to defer to the dfu write-loop
  88:dfu.c         **** 
  89:dfu.c         ****         if (pInformation->USBbRequest == DFU_DNLOAD) {
  90:dfu.c         **** 
  91:dfu.c         ****             if (pInformation->USBwLengths.w > 0) {
  92:dfu.c         ****                 userFirmwareLen = 0;
  93:dfu.c         ****                 dfuAppStatus.bState  = dfuDNLOAD_SYNC;
  94:dfu.c         ****                 switch(pInformation->Current_AlternateSetting)
  95:dfu.c         ****                 {
  96:dfu.c         ****                     case 0:
  97:dfu.c         ****                         userUploadType = DFU_UPLOAD_FLASH_0X8002000;
  98:dfu.c         ****                         userAppAddr = USER_CODE_FLASH0X8002000;
  99:dfu.c         ****                         /* make sure the flash is setup properly, unlock it */
 100:dfu.c         ****                         setupFLASH();
 101:dfu.c         ****                         flashUnlock();
 102:dfu.c         ****                         bkp10Write(RTC_BOOTLOADER_JUST_UPLOADED);
 103:dfu.c         **** 
 104:dfu.c         ****                         break;
 105:dfu.c         **** 
 106:dfu.c         ****                     default:
 107:dfu.c         ****                     // Roger Clark. Report error
 108:dfu.c         ****                         dfuAppStatus.bState  = dfuERROR;
 109:dfu.c         ****                         dfuAppStatus.bStatus = errWRITE;
 110:dfu.c         ****                         break;
 111:dfu.c         ****                 }
 112:dfu.c         ****             } else {
 113:dfu.c         ****                 dfuAppStatus.bState  = dfuERROR;
 114:dfu.c         ****                 dfuAppStatus.bStatus = errNOTDONE;
 115:dfu.c         ****             }
 116:dfu.c         ****         } else if (pInformation->USBbRequest == DFU_UPLOAD) {
 117:dfu.c         ****             dfuAppStatus.bState  = dfuUPLOAD_IDLE;
 118:dfu.c         ****             /* record length of first block for calculating target
 119:dfu.c         ****                address from wValue in consecutive blocks */
 120:dfu.c         ****             uploadBlockLen = pInformation->USBwLengths.w;
 121:dfu.c         ****             thisBlockLen = uploadBlockLen; /* for this first block as well */
 122:dfu.c         ****             /* calculate where the data should be copied from */
 123:dfu.c         ****             userFirmwareLen = uploadBlockLen * pInformation->USBwValue;
 124:dfu.c         ****             switch(pInformation->Current_AlternateSetting)
 125:dfu.c         ****             {
 126:dfu.c         ****                 case 0:
 127:dfu.c         ****                     userAppAddr = USER_CODE_FLASH0X8002000;
 128:dfu.c         ****                     userAppEnd = getFlashEnd();
 129:dfu.c         ****                     break;
 130:dfu.c         ****                 default:
 131:dfu.c         ****                 // Roger Clark.
 132:dfu.c         ****                 // Changed this to report error that its unable to write to this memory
 133:dfu.c         ****                 // However the code should never get here as only AlternateSetting 1 and 2 are allo
 134:dfu.c         ****                     dfuAppStatus.bState  = dfuERROR;
 135:dfu.c         ****                     dfuAppStatus.bStatus = errWRITE;
 136:dfu.c         ****                     break;
 137:dfu.c         ****             }
 138:dfu.c         ****         } else if (pInformation->USBbRequest == DFU_ABORT) {
 139:dfu.c         ****             dfuAppStatus.bState  = dfuIDLE;
 140:dfu.c         ****             dfuAppStatus.bStatus = OK;  /* are we really ok? we were just aborted */
 141:dfu.c         ****         } else if (pInformation->USBbRequest == DFU_GETSTATUS) {
 142:dfu.c         ****             dfuAppStatus.bState  = dfuIDLE;
 143:dfu.c         ****         } else if (pInformation->USBbRequest == DFU_GETSTATE) {
 144:dfu.c         ****             dfuAppStatus.bState  = dfuIDLE;
 145:dfu.c         ****         } else {
 146:dfu.c         ****             dfuAppStatus.bState  = dfuERROR;
 147:dfu.c         ****             dfuAppStatus.bStatus = errSTALLEDPKT;
 148:dfu.c         ****         }
 149:dfu.c         **** 
 150:dfu.c         ****     } else if (startState == dfuDNLOAD_SYNC)         {
 151:dfu.c         ****         /* device received block, waiting for DFU_GETSTATUS request */
 152:dfu.c         **** 
 153:dfu.c         ****         if (pInformation->USBbRequest == DFU_GETSTATUS) {
 154:dfu.c         ****             /* todo, add routine to wait for last block write to finish */
 155:dfu.c         **** 
 156:dfu.c         ****             /* Roger Clark. Commented out code associated with RAM upload
 157:dfu.c         **** 
 158:dfu.c         ****             if (userUploadType == DFU_UPLOAD_RAM)
 159:dfu.c         ****             {
 160:dfu.c         ****                 if (code_copy_lock == WAIT) {
 161:dfu.c         ****                     code_copy_lock = BEGINNING;
 162:dfu.c         ****                     dfuAppStatus.bwPollTimeout0 = 0x20; // 32 ms
 163:dfu.c         ****                     dfuAppStatus.bwPollTimeout1 = 0x00;
 164:dfu.c         ****                     dfuAppStatus.bState = dfuDNBUSY;
 165:dfu.c         **** 
 166:dfu.c         ****                 } else if (code_copy_lock == BEGINNING) {
 167:dfu.c         ****                     dfuAppStatus.bState = dfuDNLOAD_SYNC;
 168:dfu.c         **** 
 169:dfu.c         ****                 } else if (code_copy_lock == MIDDLE) {
 170:dfu.c         ****                     dfuAppStatus.bState = dfuDNLOAD_SYNC;
 171:dfu.c         **** 
 172:dfu.c         ****                 } else if (code_copy_lock == END) {
 173:dfu.c         ****                     dfuAppStatus.bwPollTimeout0 = 0x00;
 174:dfu.c         ****                     code_copy_lock = WAIT;
 175:dfu.c         ****                     dfuAppStatus.bState = dfuDNLOAD_IDLE;
 176:dfu.c         ****                 }
 177:dfu.c         **** 
 178:dfu.c         ****             }
 179:dfu.c         ****             else
 180:dfu.c         ****             */
 181:dfu.c         ****             {
 182:dfu.c         ****                 dfuAppStatus.bState = dfuDNLOAD_IDLE;
 183:dfu.c         ****                 dfuCopyBufferToExec();
 184:dfu.c         ****             }
 185:dfu.c         **** 
 186:dfu.c         ****         } else if (pInformation->USBbRequest == DFU_GETSTATE) {
 187:dfu.c         ****             dfuAppStatus.bState  = dfuDNLOAD_SYNC;
 188:dfu.c         ****         } else {
 189:dfu.c         ****             dfuAppStatus.bState  = dfuERROR;
 190:dfu.c         ****             dfuAppStatus.bStatus = errSTALLEDPKT;
 191:dfu.c         ****         }
 192:dfu.c         **** 
 193:dfu.c         ****     } else if (startState == dfuDNBUSY)              {
 194:dfu.c         ****         /* if were actually done writing, goto sync, else stay busy */
 195:dfu.c         ****         if (code_copy_lock == END) {
 196:dfu.c         ****             dfuAppStatus.bwPollTimeout0 = 0x00;
 197:dfu.c         ****             code_copy_lock = WAIT;
 198:dfu.c         ****             dfuAppStatus.bState = dfuDNLOAD_IDLE;
 199:dfu.c         ****         } else {
 200:dfu.c         ****             dfuAppStatus.bState = dfuDNBUSY;
 201:dfu.c         ****         }
 202:dfu.c         **** 
 203:dfu.c         ****     } else if (startState == dfuDNLOAD_IDLE)         {
 204:dfu.c         ****         /* device is expecting dfu_dnload requests */
 205:dfu.c         ****         if (pInformation->USBbRequest == DFU_DNLOAD) {
 206:dfu.c         ****             if (pInformation->USBwLengths.w > 0) {
 207:dfu.c         ****                 dfuAppStatus.bState  = dfuDNLOAD_SYNC;
 208:dfu.c         ****             } else {
 209:dfu.c         ****                 /* todo, support "disagreement" if device expects more data than this */
 210:dfu.c         ****                 dfuAppStatus.bState  = dfuMANIFEST_SYNC;
 211:dfu.c         **** 
 212:dfu.c         ****                 /* relock the flash */
 213:dfu.c         ****                 flashLock();
 214:dfu.c         ****             }
 215:dfu.c         ****         } else if (pInformation->USBbRequest == DFU_ABORT) {
 216:dfu.c         ****             dfuAppStatus.bState  = dfuIDLE;
 217:dfu.c         ****         } else if (pInformation->USBbRequest == DFU_GETSTATUS) {
 218:dfu.c         ****             dfuAppStatus.bState  = dfuIDLE;
 219:dfu.c         ****         } else if (pInformation->USBbRequest == DFU_GETSTATE) {
 220:dfu.c         ****             dfuAppStatus.bState  = dfuIDLE;
 221:dfu.c         ****         } else {
 222:dfu.c         ****             dfuAppStatus.bState  = dfuERROR;
 223:dfu.c         ****             dfuAppStatus.bStatus = errSTALLEDPKT;
 224:dfu.c         ****         }
 225:dfu.c         **** 
 226:dfu.c         ****     } else if (startState == dfuMANIFEST_SYNC)       {
 227:dfu.c         ****         /* device has received last block, waiting DFU_GETSTATUS request */
 228:dfu.c         **** 
 229:dfu.c         ****         if (pInformation->USBbRequest == DFU_GETSTATUS) {
 230:dfu.c         ****             dfuAppStatus.bState  = dfuMANIFEST_WAIT_RESET;
 231:dfu.c         ****             dfuAppStatus.bStatus = OK;
 232:dfu.c         ****         } else if (pInformation->USBbRequest == DFU_GETSTATE) {
 233:dfu.c         ****             dfuAppStatus.bState  = dfuMANIFEST_SYNC;
 234:dfu.c         ****         } else {
 235:dfu.c         ****             dfuAppStatus.bState  = dfuERROR;
 236:dfu.c         ****             dfuAppStatus.bStatus = errSTALLEDPKT;
 237:dfu.c         ****         }
 238:dfu.c         **** 
 239:dfu.c         ****     } else if (startState == dfuMANIFEST)            {
 240:dfu.c         ****         /* device is in manifestation phase */
 241:dfu.c         **** 
 242:dfu.c         ****         /* should never receive request while in manifest! */
 243:dfu.c         ****         dfuAppStatus.bState  = dfuMANIFEST_WAIT_RESET;
 244:dfu.c         ****         dfuAppStatus.bStatus = OK;
 245:dfu.c         **** 
 246:dfu.c         ****     } else if (startState == dfuMANIFEST_WAIT_RESET) {
 247:dfu.c         ****         /* device has programmed new firmware but needs external
 248:dfu.c         ****            usb reset or power on reset to run the new code */
 249:dfu.c         **** 
 250:dfu.c         ****         /* consider timing out and self-resetting */
 251:dfu.c         ****         dfuAppStatus.bState  = dfuMANIFEST_WAIT_RESET;
 252:dfu.c         **** 
 253:dfu.c         ****     } else if (startState == dfuUPLOAD_IDLE)         {
 254:dfu.c         ****         /* device expecting further dfu_upload requests */
 255:dfu.c         **** 
 256:dfu.c         ****         if (pInformation->USBbRequest == DFU_UPLOAD) {
 257:dfu.c         ****             if (pInformation->USBwLengths.w > 0) {
 258:dfu.c         ****                 /* check that this is not the last possible block */
 259:dfu.c         ****                 userFirmwareLen = uploadBlockLen * pInformation->USBwValue;
 260:dfu.c         ****                 if (userAppAddr + userFirmwareLen + uploadBlockLen <= userAppEnd) {
 261:dfu.c         ****                     thisBlockLen = uploadBlockLen;
 262:dfu.c         ****                     dfuAppStatus.bState  = dfuUPLOAD_IDLE;
 263:dfu.c         ****                 } else {
 264:dfu.c         ****                     /* if above comparison was just equal, thisBlockLen becomes zero
 265:dfu.c         ****                     next time when USBWValue has been increased by one */
 266:dfu.c         ****                     thisBlockLen = userAppEnd - userAppAddr - userFirmwareLen;
 267:dfu.c         ****                     /* check for overflow due to USBwValue out of range */
 268:dfu.c         ****                     if (thisBlockLen >= pInformation->USBwLengths.w) {
 269:dfu.c         ****                         thisBlockLen = 0;
 270:dfu.c         ****                     }
 271:dfu.c         ****                     dfuAppStatus.bState  = dfuIDLE;
 272:dfu.c         ****                 }
 273:dfu.c         ****             } else {
 274:dfu.c         ****                 dfuAppStatus.bState  = dfuERROR;
 275:dfu.c         ****                 dfuAppStatus.bStatus = errNOTDONE;
 276:dfu.c         ****             }
 277:dfu.c         ****         } else if (pInformation->USBbRequest == DFU_ABORT) {
 278:dfu.c         ****             dfuAppStatus.bState  = dfuIDLE;
 279:dfu.c         ****         } else if (pInformation->USBbRequest == DFU_GETSTATUS) {
 280:dfu.c         ****             dfuAppStatus.bState  = dfuUPLOAD_IDLE;
 281:dfu.c         ****         } else if (pInformation->USBbRequest == DFU_GETSTATE) {
 282:dfu.c         ****             dfuAppStatus.bState  = dfuUPLOAD_IDLE;
 283:dfu.c         ****         } else {
 284:dfu.c         ****             dfuAppStatus.bState  = dfuERROR;
 285:dfu.c         ****             dfuAppStatus.bStatus = errSTALLEDPKT;
 286:dfu.c         ****         }
 287:dfu.c         **** 
 288:dfu.c         **** 
 289:dfu.c         ****     } else if (startState == dfuERROR)               {
 290:dfu.c         ****         /* status is in error, awaiting DFU_CLRSTATUS request */
 291:dfu.c         **** 
 292:dfu.c         ****         if (pInformation->USBbRequest == DFU_GETSTATUS) {
 293:dfu.c         ****             /* todo, add routine to wait for last block write to finish */
 294:dfu.c         ****             dfuAppStatus.bState  = dfuERROR;
 295:dfu.c         ****         } else if (pInformation->USBbRequest == DFU_GETSTATE) {
 296:dfu.c         ****             dfuAppStatus.bState  = dfuERROR;
 297:dfu.c         ****         } else if (pInformation->USBbRequest == DFU_CLRSTATUS) {
 298:dfu.c         ****             /* todo handle any cleanup we need here */
 299:dfu.c         ****             dfuAppStatus.bState  = dfuIDLE;
 300:dfu.c         ****             dfuAppStatus.bStatus = OK;
 301:dfu.c         ****         } else {
 302:dfu.c         ****             dfuAppStatus.bState  = dfuERROR;
 303:dfu.c         ****             dfuAppStatus.bStatus = errSTALLEDPKT;
 304:dfu.c         ****         }
 305:dfu.c         **** 
 306:dfu.c         ****     } else {
 307:dfu.c         ****         /* some kind of error... */
 308:dfu.c         ****         dfuAppStatus.bState  = dfuERROR;
 309:dfu.c         ****         dfuAppStatus.bStatus = errSTALLEDPKT;
 310:dfu.c         ****     }
 311:dfu.c         **** 
 312:dfu.c         ****     if (dfuAppStatus.bStatus == OK) {
 313:dfu.c         ****         return TRUE;
 314:dfu.c         ****     } else {
 315:dfu.c         ****         return FALSE;
 316:dfu.c         ****     }
 317:dfu.c         **** }
 318:dfu.c         **** 
 319:dfu.c         **** void dfuUpdateByReset(void) {
 101              		.loc 1 319 0
 102              		.cfi_startproc
 103              		@ args = 0, pretend = 0, frame = 0
 104              		@ frame_needed = 0, uses_anonymous_args = 0
 105 0000 08B5     		push	{r3, lr}
 106              		.cfi_def_cfa_offset 8
 107              		.cfi_offset 3, -8
 108              		.cfi_offset 14, -4
 320:dfu.c         ****     u8 startState = dfuAppStatus.bState;
 109              		.loc 1 320 0
 110 0002 0E4B     		ldr	r3, .L8
 321:dfu.c         ****     userFirmwareLen = 0;
 111              		.loc 1 321 0
 112 0004 0E48     		ldr	r0, .L8+4
 320:dfu.c         ****     u8 startState = dfuAppStatus.bState;
 113              		.loc 1 320 0
 114 0006 1979     		ldrb	r1, [r3, #4]	@ zero_extendqisi2
 115              		.loc 1 321 0
 116 0008 0022     		movs	r2, #0
 320:dfu.c         ****     u8 startState = dfuAppStatus.bState;
 117              		.loc 1 320 0
 118 000a C9B2     		uxtb	r1, r1
 119              	.LVL0:
 322:dfu.c         **** 
 323:dfu.c         ****     if (startState == appDETACH) {
 120              		.loc 1 323 0
 121 000c 0129     		cmp	r1, #1
 321:dfu.c         ****     userFirmwareLen = 0;
 122              		.loc 1 321 0
 123 000e 0260     		str	r2, [r0]
 124              		.loc 1 323 0
 125 0010 08D1     		bne	.L5
 324:dfu.c         ****         dfuAppStatus.bState = dfuIDLE;
 126              		.loc 1 324 0
 127 0012 0221     		movs	r1, #2
 128              	.LVL1:
 129 0014 1971     		strb	r1, [r3, #4]
 325:dfu.c         ****         dfuAppStatus.bStatus = OK;
 130              		.loc 1 325 0
 131 0016 1A70     		strb	r2, [r3]
 326:dfu.c         **** 
 327:dfu.c         ****         nvicDisableInterrupts();
 132              		.loc 1 327 0
 133 0018 FFF7FEFF 		bl	nvicDisableInterrupts
 134              	.LVL2:
 328:dfu.c         ****         usbEnbISR();
 329:dfu.c         **** 
 330:dfu.c         ****     } else if (startState == appIDLE || startState == dfuIDLE) {
 331:dfu.c         ****         /* do nothing...might be normal usb bus activity */
 332:dfu.c         ****     } else {
 333:dfu.c         ****         /* we reset from the dfu, reset everything and startover,
 334:dfu.c         ****            which is the correct operation if this is an erroneous
 335:dfu.c         ****            event or properly following a MANIFEST */
 336:dfu.c         ****         dfuAppStatus.bState = dfuIDLE;
 337:dfu.c         ****         dfuAppStatus.bStatus = OK;
 338:dfu.c         **** 
 339:dfu.c         ****         systemHardReset();
 340:dfu.c         ****     }
 341:dfu.c         **** }
 135              		.loc 1 341 0
 136 001c BDE80840 		pop	{r3, lr}
 328:dfu.c         ****         usbEnbISR();
 137              		.loc 1 328 0
 138 0020 FFF7FEBF 		b	usbEnbISR
 139              	.LVL3:
 140              	.L5:
 330:dfu.c         ****     } else if (startState == appIDLE || startState == dfuIDLE) {
 141              		.loc 1 330 0
 142 0024 11F0FD0F 		tst	r1, #253
 143 0028 06D0     		beq	.L4
 336:dfu.c         ****         dfuAppStatus.bState = dfuIDLE;
 144              		.loc 1 336 0
 145 002a 0221     		movs	r1, #2
 146              	.LVL4:
 147 002c 1971     		strb	r1, [r3, #4]
 337:dfu.c         ****         dfuAppStatus.bStatus = OK;
 148              		.loc 1 337 0
 149 002e 1A70     		strb	r2, [r3]
 150              		.loc 1 341 0
 151 0030 BDE80840 		pop	{r3, lr}
 339:dfu.c         ****         systemHardReset();
 152              		.loc 1 339 0
 153 0034 FFF7FEBF 		b	systemHardReset
 154              	.LVL5:
 155              	.L4:
 156 0038 08BD     		pop	{r3, pc}
 157              	.L9:
 158 003a 00BF     		.align	2
 159              	.L8:
 160 003c 00000000 		.word	.LANCHOR0
 161 0040 00000000 		.word	.LANCHOR1
 162              		.cfi_endproc
 163              	.LFE2:
 165              		.section	.text.dfuUpdateByTimeout,"ax",%progbits
 166              		.align	1
 167              		.global	dfuUpdateByTimeout
 168              		.thumb
 169              		.thumb_func
 171              	dfuUpdateByTimeout:
 172              	.LFB3:
 342:dfu.c         **** 
 343:dfu.c         **** void dfuUpdateByTimeout(void) {
 173              		.loc 1 343 0
 174              		.cfi_startproc
 175              		@ args = 0, pretend = 0, frame = 0
 176              		@ frame_needed = 0, uses_anonymous_args = 0
 177              		@ link register save eliminated.
 178 0000 7047     		bx	lr
 179              		.cfi_endproc
 180              	.LFE3:
 182              		.section	.text.dfuCopyState,"ax",%progbits
 183              		.align	1
 184              		.global	dfuCopyState
 185              		.thumb
 186              		.thumb_func
 188              	dfuCopyState:
 189              	.LFB4:
 344:dfu.c         **** }
 345:dfu.c         **** 
 346:dfu.c         **** u8 *dfuCopyState(u16 length) {
 190              		.loc 1 346 0
 191              		.cfi_startproc
 192              		@ args = 0, pretend = 0, frame = 0
 193              		@ frame_needed = 0, uses_anonymous_args = 0
 194              		@ link register save eliminated.
 195              	.LVL6:
 347:dfu.c         ****     if (length == 0) {
 196              		.loc 1 347 0
 197 0000 20B9     		cbnz	r0, .L13
 348:dfu.c         ****         pInformation->Ctrl_Info.Usb_wLength = 1;
 198              		.loc 1 348 0
 199 0002 034B     		ldr	r3, .L14
 200 0004 0122     		movs	r2, #1
 201 0006 1B68     		ldr	r3, [r3]
 202 0008 1A82     		strh	r2, [r3, #16]	@ movhi
 349:dfu.c         ****         return NULL;
 203              		.loc 1 349 0
 204 000a 7047     		bx	lr
 205              	.L13:
 350:dfu.c         ****     } else {
 351:dfu.c         ****         return (&(dfuAppStatus.bState));
 206              		.loc 1 351 0
 207 000c 0148     		ldr	r0, .L14+4
 208              	.LVL7:
 352:dfu.c         ****     }
 353:dfu.c         **** }
 209              		.loc 1 353 0
 210 000e 7047     		bx	lr
 211              	.L15:
 212              		.align	2
 213              	.L14:
 214 0010 00000000 		.word	pInformation
 215 0014 04000000 		.word	.LANCHOR0+4
 216              		.cfi_endproc
 217              	.LFE4:
 219              		.section	.text.dfuCopyStatus,"ax",%progbits
 220              		.align	1
 221              		.global	dfuCopyStatus
 222              		.thumb
 223              		.thumb_func
 225              	dfuCopyStatus:
 226              	.LFB5:
 354:dfu.c         **** 
 355:dfu.c         **** u8 *dfuCopyStatus(u16 length) {
 227              		.loc 1 355 0
 228              		.cfi_startproc
 229              		@ args = 0, pretend = 0, frame = 0
 230              		@ frame_needed = 0, uses_anonymous_args = 0
 231              		@ link register save eliminated.
 232              	.LVL8:
 356:dfu.c         ****     if (length == 0) {
 233              		.loc 1 356 0
 234 0000 20B9     		cbnz	r0, .L18
 357:dfu.c         ****         pInformation->Ctrl_Info.Usb_wLength = 6;
 235              		.loc 1 357 0
 236 0002 034B     		ldr	r3, .L19
 237 0004 0622     		movs	r2, #6
 238 0006 1B68     		ldr	r3, [r3]
 239 0008 1A82     		strh	r2, [r3, #16]	@ movhi
 358:dfu.c         ****         return NULL;
 240              		.loc 1 358 0
 241 000a 7047     		bx	lr
 242              	.L18:
 359:dfu.c         ****     } else {
 360:dfu.c         ****         return (u8*)(&dfuAppStatus);
 243              		.loc 1 360 0
 244 000c 0148     		ldr	r0, .L19+4
 245              	.LVL9:
 361:dfu.c         ****     }
 362:dfu.c         **** }
 246              		.loc 1 362 0
 247 000e 7047     		bx	lr
 248              	.L20:
 249              		.align	2
 250              	.L19:
 251 0010 00000000 		.word	pInformation
 252 0014 00000000 		.word	.LANCHOR0
 253              		.cfi_endproc
 254              	.LFE5:
 256              		.section	.text.dfuCopyDNLOAD,"ax",%progbits
 257              		.align	1
 258              		.global	dfuCopyDNLOAD
 259              		.thumb
 260              		.thumb_func
 262              	dfuCopyDNLOAD:
 263              	.LFB6:
 363:dfu.c         **** 
 364:dfu.c         **** 
 365:dfu.c         **** u8 *dfuCopyDNLOAD(u16 length) {
 264              		.loc 1 365 0
 265              		.cfi_startproc
 266              		@ args = 0, pretend = 0, frame = 0
 267              		@ frame_needed = 0, uses_anonymous_args = 0
 268              		@ link register save eliminated.
 269              	.LVL10:
 270 0000 064B     		ldr	r3, .L24
 366:dfu.c         ****     if (length == 0) {
 367:dfu.c         ****         pInformation->Ctrl_Info.Usb_wLength = pInformation->USBwLengths.w - pInformation->Ctrl_Info
 271              		.loc 1 367 0
 272 0002 1B68     		ldr	r3, [r3]
 366:dfu.c         ****     if (length == 0) {
 273              		.loc 1 366 0
 274 0004 30B9     		cbnz	r0, .L22
 275              		.loc 1 367 0
 276 0006 DA88     		ldrh	r2, [r3, #6]
 277 0008 598A     		ldrh	r1, [r3, #18]
 278 000a 511A     		subs	r1, r2, r1
 279 000c 1982     		strh	r1, [r3, #16]	@ movhi
 368:dfu.c         ****         thisBlockLen = pInformation->USBwLengths.w;
 280              		.loc 1 368 0
 281 000e 044B     		ldr	r3, .L24+4
 282 0010 1A80     		strh	r2, [r3]	@ movhi
 369:dfu.c         ****         return NULL;
 283              		.loc 1 369 0
 284 0012 7047     		bx	lr
 285              	.L22:
 370:dfu.c         ****     } else {
 371:dfu.c         ****         return ((u8 *)recvBuffer + pInformation->Ctrl_Info.Usb_wOffset);
 286              		.loc 1 371 0
 287 0014 5B8A     		ldrh	r3, [r3, #18]
 288 0016 0348     		ldr	r0, .L24+8
 289              	.LVL11:
 290 0018 1844     		add	r0, r0, r3
 372:dfu.c         ****     }
 373:dfu.c         **** }
 291              		.loc 1 373 0
 292 001a 7047     		bx	lr
 293              	.L25:
 294              		.align	2
 295              	.L24:
 296 001c 00000000 		.word	pInformation
 297 0020 00000000 		.word	.LANCHOR2
 298 0024 00000000 		.word	.LANCHOR7
 299              		.cfi_endproc
 300              	.LFE6:
 302              		.section	.text.dfuCopyUPLOAD,"ax",%progbits
 303              		.align	1
 304              		.global	dfuCopyUPLOAD
 305              		.thumb
 306              		.thumb_func
 308              	dfuCopyUPLOAD:
 309              	.LFB7:
 374:dfu.c         **** 
 375:dfu.c         **** u8 *dfuCopyUPLOAD(u16 length) {
 310              		.loc 1 375 0
 311              		.cfi_startproc
 312              		@ args = 0, pretend = 0, frame = 0
 313              		@ frame_needed = 0, uses_anonymous_args = 0
 314              		@ link register save eliminated.
 315              	.LVL12:
 316 0000 084B     		ldr	r3, .L29
 376:dfu.c         ****     if (length == 0) {
 317              		.loc 1 376 0
 318 0002 30B9     		cbnz	r0, .L27
 377:dfu.c         ****         pInformation->Ctrl_Info.Usb_wLength = thisBlockLen - pInformation->Ctrl_Info.Usb_wOffset;
 319              		.loc 1 377 0
 320 0004 1B68     		ldr	r3, [r3]
 321 0006 084A     		ldr	r2, .L29+4
 322 0008 1188     		ldrh	r1, [r2]
 323 000a 5A8A     		ldrh	r2, [r3, #18]
 324 000c 8A1A     		subs	r2, r1, r2
 325 000e 1A82     		strh	r2, [r3, #16]	@ movhi
 378:dfu.c         ****         return NULL;
 326              		.loc 1 378 0
 327 0010 7047     		bx	lr
 328              	.L27:
 379:dfu.c         ****     } else {
 380:dfu.c         ****         return((u8*) userAppAddr + userFirmwareLen + pInformation->Ctrl_Info.Usb_wOffset);
 329              		.loc 1 380 0
 330 0012 0649     		ldr	r1, .L29+8
 331 0014 064A     		ldr	r2, .L29+12
 332 0016 1B68     		ldr	r3, [r3]
 333 0018 1268     		ldr	r2, [r2]
 334 001a 0868     		ldr	r0, [r1]
 335              	.LVL13:
 336 001c 5B8A     		ldrh	r3, [r3, #18]
 337 001e 1044     		add	r0, r0, r2
 338 0020 1844     		add	r0, r0, r3
 381:dfu.c         ****     }
 382:dfu.c         **** }
 339              		.loc 1 382 0
 340 0022 7047     		bx	lr
 341              	.L30:
 342              		.align	2
 343              	.L29:
 344 0024 00000000 		.word	pInformation
 345 0028 00000000 		.word	.LANCHOR2
 346 002c 00000000 		.word	.LANCHOR3
 347 0030 00000000 		.word	.LANCHOR1
 348              		.cfi_endproc
 349              	.LFE7:
 351              		.section	.text.dfuCopyBufferToExec,"ax",%progbits
 352              		.align	1
 353              		.global	dfuCopyBufferToExec
 354              		.thumb
 355              		.thumb_func
 357              	dfuCopyBufferToExec:
 358              	.LFB8:
 383:dfu.c         **** 
 384:dfu.c         **** void dfuCopyBufferToExec() {
 359              		.loc 1 384 0
 360              		.cfi_startproc
 361              		@ args = 0, pretend = 0, frame = 0
 362              		@ frame_needed = 0, uses_anonymous_args = 0
 363 0000 70B5     		push	{r4, r5, r6, lr}
 364              		.cfi_def_cfa_offset 16
 365              		.cfi_offset 4, -16
 366              		.cfi_offset 5, -12
 367              		.cfi_offset 6, -8
 368              		.cfi_offset 14, -4
 385:dfu.c         ****     int i;
 386:dfu.c         ****     u32 *userSpace;
 387:dfu.c         **** 
 388:dfu.c         **** /* Roger Clark.
 389:dfu.c         ****     Commented out code associated with upload to RAM
 390:dfu.c         **** 
 391:dfu.c         ****     if (userUploadType == DFU_UPLOAD_RAM)
 392:dfu.c         ****     {
 393:dfu.c         ****         userSpace = (u32 *)(USER_CODE_RAM + userFirmwareLen);
 394:dfu.c         ****         // we dont need to handle when thisBlock len is not divisible by 4,
 395:dfu.c         ****         //   since the linker will align everything to 4B anyway
 396:dfu.c         ****         for (i = 0; i < thisBlockLen; i = i + 4) {
 397:dfu.c         ****             *userSpace++ = *(u32 *)(recvBuffer + i);
 398:dfu.c         ****         }
 399:dfu.c         ****     }
 400:dfu.c         ****     else
 401:dfu.c         **** */
 402:dfu.c         ****     {
 403:dfu.c         ****         if (userUploadType == DFU_UPLOAD_FLASH_0X8005000)
 369              		.loc 1 403 0
 370 0002 124B     		ldr	r3, .L37
 371 0004 124E     		ldr	r6, .L37+4
 372 0006 1B78     		ldrb	r3, [r3]	@ zero_extendqisi2
 404:dfu.c         ****         {
 405:dfu.c         ****             userSpace = (u32 *)(USER_CODE_FLASH0X8005000 + userFirmwareLen);
 373              		.loc 1 405 0
 374 0008 3468     		ldr	r4, [r6]
 403:dfu.c         ****         if (userUploadType == DFU_UPLOAD_FLASH_0X8005000)
 375              		.loc 1 403 0
 376 000a 022B     		cmp	r3, #2
 377              		.loc 1 405 0
 378 000c 04F10064 		add	r4, r4, #134217728
 379 0010 0CBF     		ite	eq
 380 0012 04F5A044 		addeq	r4, r4, #20480
 381              	.LVL14:
 406:dfu.c         ****         }
 407:dfu.c         ****         else
 408:dfu.c         ****         {
 409:dfu.c         ****             userSpace = (u32 *)(USER_CODE_FLASH0X8002000 + userFirmwareLen);
 382              		.loc 1 409 0
 383 0016 04F50054 		addne	r4, r4, #8192
 410:dfu.c         ****         }
 411:dfu.c         **** 
 412:dfu.c         ****         flashErasePage((u32)(userSpace));
 384              		.loc 1 412 0
 385 001a 2046     		mov	r0, r4
 386 001c FFF7FEFF 		bl	flashErasePage
 387              	.LVL15:
 413:dfu.c         **** 
 414:dfu.c         ****         for (i = 0; i < thisBlockLen; i = i + 4) {
 388              		.loc 1 414 0
 389 0020 0025     		movs	r5, #0
 390              	.LVL16:
 391              	.L34:
 392              		.loc 1 414 0 is_stmt 0 discriminator 1
 393 0022 0C4B     		ldr	r3, .L37+8
 394 0024 1A88     		ldrh	r2, [r3]
 395 0026 92B2     		uxth	r2, r2
 396 0028 9542     		cmp	r5, r2
 397 002a 06DA     		bge	.L36
 415:dfu.c         ****             flashWriteWord((u32)(userSpace++), *(u32 *)(recvBuffer +i));
 398              		.loc 1 415 0 is_stmt 1 discriminator 2
 399 002c 0A4B     		ldr	r3, .L37+12
 400 002e 6019     		adds	r0, r4, r5
 401 0030 E958     		ldr	r1, [r5, r3]
 402 0032 FFF7FEFF 		bl	flashWriteWord
 403              	.LVL17:
 414:dfu.c         ****         for (i = 0; i < thisBlockLen; i = i + 4) {
 404              		.loc 1 414 0 discriminator 2
 405 0036 0435     		adds	r5, r5, #4
 406              	.LVL18:
 407 0038 F3E7     		b	.L34
 408              	.L36:
 416:dfu.c         ****         }
 417:dfu.c         **** 
 418:dfu.c         ****     }
 419:dfu.c         ****     userFirmwareLen += thisBlockLen;
 409              		.loc 1 419 0
 410 003a 3168     		ldr	r1, [r6]
 411 003c 1A88     		ldrh	r2, [r3]
 412 003e 92B2     		uxth	r2, r2
 413 0040 0A44     		add	r2, r2, r1
 414 0042 3260     		str	r2, [r6]
 420:dfu.c         **** 
 421:dfu.c         ****     thisBlockLen = 0;
 415              		.loc 1 421 0
 416 0044 0022     		movs	r2, #0
 417 0046 1A80     		strh	r2, [r3]	@ movhi
 418 0048 70BD     		pop	{r4, r5, r6, pc}
 419              	.LVL19:
 420              	.L38:
 421 004a 00BF     		.align	2
 422              	.L37:
 423 004c 00000000 		.word	.LANCHOR5
 424 0050 00000000 		.word	.LANCHOR1
 425 0054 00000000 		.word	.LANCHOR2
 426 0058 00000000 		.word	.LANCHOR7
 427              		.cfi_endproc
 428              	.LFE8:
 430              		.section	.text.dfuUpdateByRequest,"ax",%progbits
 431              		.align	1
 432              		.global	dfuUpdateByRequest
 433              		.thumb
 434              		.thumb_func
 436              	dfuUpdateByRequest:
 437              	.LFB1:
  75:dfu.c         **** bool dfuUpdateByRequest(void) {
 438              		.loc 1 75 0
 439              		.cfi_startproc
 440              		@ args = 0, pretend = 0, frame = 0
 441              		@ frame_needed = 0, uses_anonymous_args = 0
 442 0000 2DE9F041 		push	{r4, r5, r6, r7, r8, lr}
 443              		.cfi_def_cfa_offset 24
 444              		.cfi_offset 4, -24
 445              		.cfi_offset 5, -20
 446              		.cfi_offset 6, -16
 447              		.cfi_offset 7, -12
 448              		.cfi_offset 8, -8
 449              		.cfi_offset 14, -4
  78:dfu.c         ****     dfuBusy = TRUE;
 450              		.loc 1 78 0
 451 0004 7749     		ldr	r1, .L92
  82:dfu.c         ****     u8 startState = dfuAppStatus.bState;
 452              		.loc 1 82 0
 453 0006 784C     		ldr	r4, .L92+4
  78:dfu.c         ****     dfuBusy = TRUE;
 454              		.loc 1 78 0
 455 0008 0120     		movs	r0, #1
 456 000a 0870     		strb	r0, [r1]
  82:dfu.c         ****     u8 startState = dfuAppStatus.bState;
 457              		.loc 1 82 0
 458 000c 2379     		ldrb	r3, [r4, #4]	@ zero_extendqisi2
  83:dfu.c         ****     dfuAppStatus.bStatus = OK;
 459              		.loc 1 83 0
 460 000e 0022     		movs	r2, #0
  82:dfu.c         ****     u8 startState = dfuAppStatus.bState;
 461              		.loc 1 82 0
 462 0010 DBB2     		uxtb	r3, r3
 463              	.LVL20:
  85:dfu.c         ****     if (startState == dfuIDLE)  {
 464              		.loc 1 85 0
 465 0012 022B     		cmp	r3, #2
  83:dfu.c         ****     dfuAppStatus.bStatus = OK;
 466              		.loc 1 83 0
 467 0014 2270     		strb	r2, [r4]
  85:dfu.c         ****     if (startState == dfuIDLE)  {
 468              		.loc 1 85 0
 469 0016 46D1     		bne	.L40
  87:dfu.c         ****         dfuBusy = TRUE; // signals the main loop to defer to the dfu write-loop
 470              		.loc 1 87 0
 471 0018 0870     		strb	r0, [r1]
  89:dfu.c         ****         if (pInformation->USBbRequest == DFU_DNLOAD) {
 472              		.loc 1 89 0
 473 001a 7449     		ldr	r1, .L92+8
 474 001c 0968     		ldr	r1, [r1]
 475 001e 4878     		ldrb	r0, [r1, #1]	@ zero_extendqisi2
 476 0020 0128     		cmp	r0, #1
 477 0022 1AD1     		bne	.L41
  91:dfu.c         ****             if (pInformation->USBwLengths.w > 0) {
 478              		.loc 1 91 0
 479 0024 CB88     		ldrh	r3, [r1, #6]
 480              	.LVL21:
 481 0026 002B     		cmp	r3, #0
 482 0028 00F0B080 		beq	.L70
  92:dfu.c         ****                 userFirmwareLen = 0;
 483              		.loc 1 92 0
 484 002c 704B     		ldr	r3, .L92+12
 485 002e 1A60     		str	r2, [r3]
  94:dfu.c         ****                 switch(pInformation->Current_AlternateSetting)
 486              		.loc 1 94 0
 487 0030 0A7B     		ldrb	r2, [r1, #12]	@ zero_extendqisi2
  93:dfu.c         ****                 dfuAppStatus.bState  = dfuDNLOAD_SYNC;
 488              		.loc 1 93 0
 489 0032 0323     		movs	r3, #3
 490 0034 2371     		strb	r3, [r4, #4]
  94:dfu.c         ****                 switch(pInformation->Current_AlternateSetting)
 491              		.loc 1 94 0
 492 0036 6AB9     		cbnz	r2, .L80
  97:dfu.c         ****                         userUploadType = DFU_UPLOAD_FLASH_0X8002000;
 493              		.loc 1 97 0
 494 0038 6E4A     		ldr	r2, .L92+16
 495 003a 1370     		strb	r3, [r2]
  98:dfu.c         ****                         userAppAddr = USER_CODE_FLASH0X8002000;
 496              		.loc 1 98 0
 497 003c 6E4A     		ldr	r2, .L92+20
 498 003e 6F4B     		ldr	r3, .L92+24
 499 0040 1A60     		str	r2, [r3]
 100:dfu.c         ****                         setupFLASH();
 500              		.loc 1 100 0
 501 0042 FFF7FEFF 		bl	setupFLASH
 502              	.LVL22:
 101:dfu.c         ****                         flashUnlock();
 503              		.loc 1 101 0
 504 0046 FFF7FEFF 		bl	flashUnlock
 505              	.LVL23:
 102:dfu.c         ****                         bkp10Write(RTC_BOOTLOADER_JUST_UPLOADED);
 506              		.loc 1 102 0
 507 004a 44F24D20 		movw	r0, #16973
 508 004e FFF7FEFF 		bl	bkp10Write
 509              	.LVL24:
 104:dfu.c         ****                         break;
 510              		.loc 1 104 0
 511 0052 BFE0     		b	.L45
 512              	.L80:
 108:dfu.c         ****                         dfuAppStatus.bState  = dfuERROR;
 513              		.loc 1 108 0
 514 0054 0A22     		movs	r2, #10
 515 0056 2271     		strb	r2, [r4, #4]
 516 0058 BBE0     		b	.L83
 517              	.LVL25:
 518              	.L41:
 116:dfu.c         ****         } else if (pInformation->USBbRequest == DFU_UPLOAD) {
 519              		.loc 1 116 0
 520 005a 0228     		cmp	r0, #2
 521 005c 1CD1     		bne	.L46
 117:dfu.c         ****             dfuAppStatus.bState  = dfuUPLOAD_IDLE;
 522              		.loc 1 117 0
 523 005e 0923     		movs	r3, #9
 524              	.LVL26:
 525 0060 2371     		strb	r3, [r4, #4]
 120:dfu.c         ****             uploadBlockLen = pInformation->USBwLengths.w;
 526              		.loc 1 120 0
 527 0062 CA88     		ldrh	r2, [r1, #6]
 528 0064 664B     		ldr	r3, .L92+28
 529 0066 1A80     		strh	r2, [r3]	@ movhi
 121:dfu.c         ****             thisBlockLen = uploadBlockLen; /* for this first block as well */
 530              		.loc 1 121 0
 531 0068 1888     		ldrh	r0, [r3]
 532 006a 664A     		ldr	r2, .L92+32
 533 006c 80B2     		uxth	r0, r0
 534 006e 1080     		strh	r0, [r2]	@ movhi
 123:dfu.c         ****             userFirmwareLen = uploadBlockLen * pInformation->USBwValue;
 535              		.loc 1 123 0
 536 0070 1A88     		ldrh	r2, [r3]
 537 0072 4B88     		ldrh	r3, [r1, #2]
 538 0074 92B2     		uxth	r2, r2
 539 0076 5A43     		muls	r2, r3, r2
 540 0078 5D4B     		ldr	r3, .L92+12
 541 007a 1A60     		str	r2, [r3]
 124:dfu.c         ****             switch(pInformation->Current_AlternateSetting)
 542              		.loc 1 124 0
 543 007c 0B7B     		ldrb	r3, [r1, #12]	@ zero_extendqisi2
 544 007e 3BB9     		cbnz	r3, .L81
 127:dfu.c         ****                     userAppAddr = USER_CODE_FLASH0X8002000;
 545              		.loc 1 127 0
 546 0080 5E4B     		ldr	r3, .L92+24
 547 0082 5D4A     		ldr	r2, .L92+20
 548 0084 1A60     		str	r2, [r3]
 128:dfu.c         ****                     userAppEnd = getFlashEnd();
 549              		.loc 1 128 0
 550 0086 FFF7FEFF 		bl	getFlashEnd
 551              	.LVL27:
 552 008a 5F4B     		ldr	r3, .L92+36
 553 008c 1860     		str	r0, [r3]
 129:dfu.c         ****                     break;
 554              		.loc 1 129 0
 555 008e A1E0     		b	.L45
 556              	.L81:
 134:dfu.c         ****                     dfuAppStatus.bState  = dfuERROR;
 557              		.loc 1 134 0
 558 0090 0A23     		movs	r3, #10
 559 0092 2371     		strb	r3, [r4, #4]
 135:dfu.c         ****                     dfuAppStatus.bStatus = errWRITE;
 560              		.loc 1 135 0
 561 0094 0323     		movs	r3, #3
 562 0096 9CE0     		b	.L83
 563              	.LVL28:
 564              	.L46:
 138:dfu.c         ****         } else if (pInformation->USBbRequest == DFU_ABORT) {
 565              		.loc 1 138 0
 566 0098 0628     		cmp	r0, #6
 567 009a 3CD0     		beq	.L84
 141:dfu.c         ****         } else if (pInformation->USBbRequest == DFU_GETSTATUS) {
 568              		.loc 1 141 0
 569 009c 0328     		cmp	r0, #3
 570 009e 00F08B80 		beq	.L82
 143:dfu.c         ****         } else if (pInformation->USBbRequest == DFU_GETSTATE) {
 571              		.loc 1 143 0
 572 00a2 0528     		cmp	r0, #5
 573 00a4 3BE0     		b	.L89
 574              	.L40:
 150:dfu.c         ****     } else if (startState == dfuDNLOAD_SYNC)         {
 575              		.loc 1 150 0
 576 00a6 032B     		cmp	r3, #3
 577 00a8 0BD1     		bne	.L52
 153:dfu.c         ****         if (pInformation->USBbRequest == DFU_GETSTATUS) {
 578              		.loc 1 153 0
 579 00aa 504A     		ldr	r2, .L92+8
 580 00ac 1268     		ldr	r2, [r2]
 581 00ae 5278     		ldrb	r2, [r2, #1]	@ zero_extendqisi2
 582 00b0 032A     		cmp	r2, #3
 583 00b2 04D1     		bne	.L53
 182:dfu.c         ****                 dfuAppStatus.bState = dfuDNLOAD_IDLE;
 584              		.loc 1 182 0
 585 00b4 0523     		movs	r3, #5
 586              	.LVL29:
 587 00b6 2371     		strb	r3, [r4, #4]
 183:dfu.c         ****                 dfuCopyBufferToExec();
 588              		.loc 1 183 0
 589 00b8 FFF7FEFF 		bl	dfuCopyBufferToExec
 590              	.LVL30:
 591 00bc 8AE0     		b	.L45
 592              	.LVL31:
 593              	.L53:
 186:dfu.c         ****         } else if (pInformation->USBbRequest == DFU_GETSTATE) {
 594              		.loc 1 186 0
 595 00be 052A     		cmp	r2, #5
 596 00c0 2DE0     		b	.L89
 597              	.L52:
 193:dfu.c         ****     } else if (startState == dfuDNBUSY)              {
 598              		.loc 1 193 0
 599 00c2 042B     		cmp	r3, #4
 600 00c4 08D1     		bne	.L55
 195:dfu.c         ****         if (code_copy_lock == END) {
 601              		.loc 1 195 0
 602 00c6 5149     		ldr	r1, .L92+40
 603 00c8 0878     		ldrb	r0, [r1]	@ zero_extendqisi2
 604 00ca 0228     		cmp	r0, #2
 605 00cc 74D1     		bne	.L82
 197:dfu.c         ****             code_copy_lock = WAIT;
 606              		.loc 1 197 0
 607 00ce 0323     		movs	r3, #3
 608              	.LVL32:
 196:dfu.c         ****             dfuAppStatus.bwPollTimeout0 = 0x00;
 609              		.loc 1 196 0
 610 00d0 6270     		strb	r2, [r4, #1]
 197:dfu.c         ****             code_copy_lock = WAIT;
 611              		.loc 1 197 0
 612 00d2 0B70     		strb	r3, [r1]
 198:dfu.c         ****             dfuAppStatus.bState = dfuDNLOAD_IDLE;
 613              		.loc 1 198 0
 614 00d4 0523     		movs	r3, #5
 615 00d6 6FE0     		b	.L82
 616              	.LVL33:
 617              	.L55:
 203:dfu.c         ****     } else if (startState == dfuDNLOAD_IDLE)         {
 618              		.loc 1 203 0
 619 00d8 052B     		cmp	r3, #5
 620 00da 14D1     		bne	.L57
 205:dfu.c         ****         if (pInformation->USBbRequest == DFU_DNLOAD) {
 621              		.loc 1 205 0
 622 00dc 434B     		ldr	r3, .L92+8
 623              	.LVL34:
 624 00de 1A68     		ldr	r2, [r3]
 625 00e0 5378     		ldrb	r3, [r2, #1]	@ zero_extendqisi2
 626 00e2 012B     		cmp	r3, #1
 627 00e4 08D1     		bne	.L58
 206:dfu.c         ****             if (pInformation->USBwLengths.w > 0) {
 628              		.loc 1 206 0
 629 00e6 D388     		ldrh	r3, [r2, #6]
 630 00e8 0BB1     		cbz	r3, .L59
 207:dfu.c         ****                 dfuAppStatus.bState  = dfuDNLOAD_SYNC;
 631              		.loc 1 207 0
 632 00ea 0323     		movs	r3, #3
 633 00ec 64E0     		b	.L82
 634              	.L59:
 210:dfu.c         ****                 dfuAppStatus.bState  = dfuMANIFEST_SYNC;
 635              		.loc 1 210 0
 636 00ee 0623     		movs	r3, #6
 637 00f0 2371     		strb	r3, [r4, #4]
 213:dfu.c         ****                 flashLock();
 638              		.loc 1 213 0
 639 00f2 FFF7FEFF 		bl	flashLock
 640              	.LVL35:
 641 00f6 6DE0     		b	.L45
 642              	.L58:
 215:dfu.c         ****         } else if (pInformation->USBbRequest == DFU_ABORT) {
 643              		.loc 1 215 0
 644 00f8 062B     		cmp	r3, #6
 645 00fa 4DD0     		beq	.L90
 217:dfu.c         ****         } else if (pInformation->USBbRequest == DFU_GETSTATUS) {
 646              		.loc 1 217 0
 647 00fc 032B     		cmp	r3, #3
 648 00fe 4BD0     		beq	.L90
 219:dfu.c         ****         } else if (pInformation->USBbRequest == DFU_GETSTATE) {
 649              		.loc 1 219 0
 650 0100 052B     		cmp	r3, #5
 651 0102 63D1     		bne	.L76
 652 0104 48E0     		b	.L90
 653              	.LVL36:
 654              	.L57:
 226:dfu.c         ****     } else if (startState == dfuMANIFEST_SYNC)       {
 655              		.loc 1 226 0
 656 0106 062B     		cmp	r3, #6
 657 0108 0BD1     		bne	.L63
 229:dfu.c         ****         if (pInformation->USBbRequest == DFU_GETSTATUS) {
 658              		.loc 1 229 0
 659 010a 3849     		ldr	r1, .L92+8
 660 010c 0968     		ldr	r1, [r1]
 661 010e 4978     		ldrb	r1, [r1, #1]	@ zero_extendqisi2
 662 0110 0329     		cmp	r1, #3
 663 0112 03D1     		bne	.L64
 664              	.L86:
 230:dfu.c         ****             dfuAppStatus.bState  = dfuMANIFEST_WAIT_RESET;
 665              		.loc 1 230 0
 666 0114 0823     		movs	r3, #8
 667              	.LVL37:
 668              	.L84:
 669 0116 2371     		strb	r3, [r4, #4]
 231:dfu.c         ****             dfuAppStatus.bStatus = OK;
 670              		.loc 1 231 0
 671 0118 2270     		strb	r2, [r4]
 672 011a 5BE0     		b	.L45
 673              	.LVL38:
 674              	.L64:
 232:dfu.c         ****         } else if (pInformation->USBbRequest == DFU_GETSTATE) {
 675              		.loc 1 232 0
 676 011c 0529     		cmp	r1, #5
 677              	.L89:
 678 011e 55D1     		bne	.L76
 679 0120 4AE0     		b	.L82
 680              	.L63:
 239:dfu.c         ****     } else if (startState == dfuMANIFEST)            {
 681              		.loc 1 239 0
 682 0122 072B     		cmp	r3, #7
 683 0124 F6D0     		beq	.L86
 246:dfu.c         ****     } else if (startState == dfuMANIFEST_WAIT_RESET) {
 684              		.loc 1 246 0
 685 0126 082B     		cmp	r3, #8
 686 0128 46D0     		beq	.L82
 253:dfu.c         ****     } else if (startState == dfuUPLOAD_IDLE)         {
 687              		.loc 1 253 0
 688 012a 092B     		cmp	r3, #9
 689 012c 3CD1     		bne	.L68
 256:dfu.c         ****         if (pInformation->USBbRequest == DFU_UPLOAD) {
 690              		.loc 1 256 0
 691 012e 2F4B     		ldr	r3, .L92+8
 692              	.LVL39:
 693 0130 1A68     		ldr	r2, [r3]
 694 0132 5378     		ldrb	r3, [r2, #1]	@ zero_extendqisi2
 695 0134 022B     		cmp	r3, #2
 696 0136 2DD1     		bne	.L69
 257:dfu.c         ****             if (pInformation->USBwLengths.w > 0) {
 697              		.loc 1 257 0
 698 0138 D088     		ldrh	r0, [r2, #6]
 699 013a 38B3     		cbz	r0, .L70
 259:dfu.c         ****                 userFirmwareLen = uploadBlockLen * pInformation->USBwValue;
 700              		.loc 1 259 0
 701 013c 3049     		ldr	r1, .L92+28
 702 013e 5288     		ldrh	r2, [r2, #2]
 703 0140 0B88     		ldrh	r3, [r1]
 260:dfu.c         ****                 if (userAppAddr + userFirmwareLen + uploadBlockLen <= userAppEnd) {
 704              		.loc 1 260 0
 705 0142 2E4D     		ldr	r5, .L92+24
 259:dfu.c         ****                 userFirmwareLen = uploadBlockLen * pInformation->USBwValue;
 706              		.loc 1 259 0
 707 0144 9BB2     		uxth	r3, r3
 708 0146 5343     		muls	r3, r2, r3
 709 0148 294A     		ldr	r2, .L92+12
 260:dfu.c         ****                 if (userAppAddr + userFirmwareLen + uploadBlockLen <= userAppEnd) {
 710              		.loc 1 260 0
 711 014a 2F4E     		ldr	r6, .L92+36
 259:dfu.c         ****                 userFirmwareLen = uploadBlockLen * pInformation->USBwValue;
 712              		.loc 1 259 0
 713 014c 1360     		str	r3, [r2]
 260:dfu.c         ****                 if (userAppAddr + userFirmwareLen + uploadBlockLen <= userAppEnd) {
 714              		.loc 1 260 0
 715 014e 2F68     		ldr	r7, [r5]
 716 0150 D2F80080 		ldr	r8, [r2]
 717 0154 B1F800C0 		ldrh	ip, [r1]
 718 0158 4744     		add	r7, r7, r8
 719 015a 3368     		ldr	r3, [r6]
 720 015c 1FFA8CFC 		uxth	ip, ip
 721 0160 6744     		add	r7, r7, ip
 722 0162 9F42     		cmp	r7, r3
 723 0164 274B     		ldr	r3, .L92+32
 724 0166 03D8     		bhi	.L71
 261:dfu.c         ****                     thisBlockLen = uploadBlockLen;
 725              		.loc 1 261 0
 726 0168 0A88     		ldrh	r2, [r1]
 727 016a 92B2     		uxth	r2, r2
 728 016c 1A80     		strh	r2, [r3]	@ movhi
 729 016e 19E0     		b	.L87
 730              	.L71:
 266:dfu.c         ****                     thisBlockLen = userAppEnd - userAppAddr - userFirmwareLen;
 731              		.loc 1 266 0
 732 0170 3668     		ldr	r6, [r6]
 733 0172 2D68     		ldr	r5, [r5]
 734 0174 1168     		ldr	r1, [r2]
 735 0176 721B     		subs	r2, r6, r5
 736 0178 521A     		subs	r2, r2, r1
 737 017a 92B2     		uxth	r2, r2
 738 017c 1A80     		strh	r2, [r3]	@ movhi
 268:dfu.c         ****                     if (thisBlockLen >= pInformation->USBwLengths.w) {
 739              		.loc 1 268 0
 740 017e 1A88     		ldrh	r2, [r3]
 741 0180 92B2     		uxth	r2, r2
 742 0182 8242     		cmp	r2, r0
 743 0184 08D3     		bcc	.L90
 269:dfu.c         ****                         thisBlockLen = 0;
 744              		.loc 1 269 0
 745 0186 0022     		movs	r2, #0
 746 0188 1A80     		strh	r2, [r3]	@ movhi
 747 018a 05E0     		b	.L90
 748              	.L70:
 274:dfu.c         ****                 dfuAppStatus.bState  = dfuERROR;
 749              		.loc 1 274 0
 750 018c 0A23     		movs	r3, #10
 751 018e 2371     		strb	r3, [r4, #4]
 275:dfu.c         ****                 dfuAppStatus.bStatus = errNOTDONE;
 752              		.loc 1 275 0
 753 0190 0923     		movs	r3, #9
 754 0192 1EE0     		b	.L83
 755              	.L69:
 277:dfu.c         ****         } else if (pInformation->USBbRequest == DFU_ABORT) {
 756              		.loc 1 277 0
 757 0194 062B     		cmp	r3, #6
 758 0196 01D1     		bne	.L73
 759              	.L90:
 278:dfu.c         ****             dfuAppStatus.bState  = dfuIDLE;
 760              		.loc 1 278 0
 761 0198 0223     		movs	r3, #2
 762 019a 0DE0     		b	.L82
 763              	.L73:
 279:dfu.c         ****         } else if (pInformation->USBbRequest == DFU_GETSTATUS) {
 764              		.loc 1 279 0
 765 019c 032B     		cmp	r3, #3
 766 019e 01D0     		beq	.L87
 281:dfu.c         ****         } else if (pInformation->USBbRequest == DFU_GETSTATE) {
 767              		.loc 1 281 0
 768 01a0 052B     		cmp	r3, #5
 769 01a2 13D1     		bne	.L76
 770              	.L87:
 282:dfu.c         ****             dfuAppStatus.bState  = dfuUPLOAD_IDLE;
 771              		.loc 1 282 0
 772 01a4 0923     		movs	r3, #9
 773 01a6 07E0     		b	.L82
 774              	.LVL40:
 775              	.L68:
 289:dfu.c         ****     } else if (startState == dfuERROR)               {
 776              		.loc 1 289 0
 777 01a8 0A2B     		cmp	r3, #10
 778 01aa 0FD1     		bne	.L76
 292:dfu.c         ****         if (pInformation->USBbRequest == DFU_GETSTATUS) {
 779              		.loc 1 292 0
 780 01ac 0F4B     		ldr	r3, .L92+8
 781              	.LVL41:
 782 01ae 1B68     		ldr	r3, [r3]
 783 01b0 5B78     		ldrb	r3, [r3, #1]	@ zero_extendqisi2
 784 01b2 032B     		cmp	r3, #3
 785 01b4 02D1     		bne	.L77
 786              	.L85:
 294:dfu.c         ****             dfuAppStatus.bState  = dfuERROR;
 787              		.loc 1 294 0
 788 01b6 0A23     		movs	r3, #10
 789              	.L82:
 790 01b8 2371     		strb	r3, [r4, #4]
 791 01ba 0BE0     		b	.L45
 792              	.L77:
 295:dfu.c         ****         } else if (pInformation->USBbRequest == DFU_GETSTATE) {
 793              		.loc 1 295 0
 794 01bc 052B     		cmp	r3, #5
 795 01be FAD0     		beq	.L85
 297:dfu.c         ****         } else if (pInformation->USBbRequest == DFU_CLRSTATUS) {
 796              		.loc 1 297 0
 797 01c0 042B     		cmp	r3, #4
 798 01c2 03D1     		bne	.L76
 299:dfu.c         ****             dfuAppStatus.bState  = dfuIDLE;
 799              		.loc 1 299 0
 800 01c4 0223     		movs	r3, #2
 801 01c6 2371     		strb	r3, [r4, #4]
 300:dfu.c         ****             dfuAppStatus.bStatus = OK;
 802              		.loc 1 300 0
 803 01c8 0023     		movs	r3, #0
 804 01ca 02E0     		b	.L83
 805              	.L76:
 308:dfu.c         ****         dfuAppStatus.bState  = dfuERROR;
 806              		.loc 1 308 0
 807 01cc 0A23     		movs	r3, #10
 808 01ce 2371     		strb	r3, [r4, #4]
 309:dfu.c         ****         dfuAppStatus.bStatus = errSTALLEDPKT;
 809              		.loc 1 309 0
 810 01d0 0F23     		movs	r3, #15
 811              	.L83:
 812 01d2 2370     		strb	r3, [r4]
 813              	.L45:
 312:dfu.c         ****     if (dfuAppStatus.bStatus == OK) {
 814              		.loc 1 312 0
 815 01d4 2078     		ldrb	r0, [r4]	@ zero_extendqisi2
 317:dfu.c         **** }
 816              		.loc 1 317 0
 817 01d6 D0F10100 		rsbs	r0, r0, #1
 818 01da 38BF     		it	cc
 819 01dc 0020     		movcc	r0, #0
 820 01de BDE8F081 		pop	{r4, r5, r6, r7, r8, pc}
 821              	.L93:
 822 01e2 00BF     		.align	2
 823              	.L92:
 824 01e4 00000000 		.word	.LANCHOR6
 825 01e8 00000000 		.word	.LANCHOR0
 826 01ec 00000000 		.word	pInformation
 827 01f0 00000000 		.word	.LANCHOR1
 828 01f4 00000000 		.word	.LANCHOR5
 829 01f8 00200008 		.word	134225920
 830 01fc 00000000 		.word	.LANCHOR3
 831 0200 00000000 		.word	.LANCHOR8
 832 0204 00000000 		.word	.LANCHOR2
 833 0208 00000000 		.word	.LANCHOR4
 834 020c 00000000 		.word	code_copy_lock
 835              		.cfi_endproc
 836              	.LFE1:
 838              		.section	.text.dfuGetState,"ax",%progbits
 839              		.align	1
 840              		.global	dfuGetState
 841              		.thumb
 842              		.thumb_func
 844              	dfuGetState:
 845              	.LFB9:
 422:dfu.c         **** }
 423:dfu.c         **** 
 424:dfu.c         **** u8 dfuGetState(void) {
 846              		.loc 1 424 0
 847              		.cfi_startproc
 848              		@ args = 0, pretend = 0, frame = 0
 849              		@ frame_needed = 0, uses_anonymous_args = 0
 850              		@ link register save eliminated.
 425:dfu.c         ****     return dfuAppStatus.bState;
 851              		.loc 1 425 0
 852 0000 014B     		ldr	r3, .L95
 853 0002 1879     		ldrb	r0, [r3, #4]	@ zero_extendqisi2
 426:dfu.c         **** }
 854              		.loc 1 426 0
 855 0004 7047     		bx	lr
 856              	.L96:
 857 0006 00BF     		.align	2
 858              	.L95:
 859 0008 00000000 		.word	.LANCHOR0
 860              		.cfi_endproc
 861              	.LFE9:
 863              		.section	.text.dfuSetState,"ax",%progbits
 864              		.align	1
 865              		.global	dfuSetState
 866              		.thumb
 867              		.thumb_func
 869              	dfuSetState:
 870              	.LFB10:
 427:dfu.c         **** 
 428:dfu.c         **** void dfuSetState(u8 newState) {
 871              		.loc 1 428 0
 872              		.cfi_startproc
 873              		@ args = 0, pretend = 0, frame = 0
 874              		@ frame_needed = 0, uses_anonymous_args = 0
 875              		@ link register save eliminated.
 876              	.LVL42:
 429:dfu.c         ****     dfuAppStatus.bState = newState;
 877              		.loc 1 429 0
 878 0000 014B     		ldr	r3, .L98
 879 0002 1871     		strb	r0, [r3, #4]
 880 0004 7047     		bx	lr
 881              	.L99:
 882 0006 00BF     		.align	2
 883              	.L98:
 884 0008 00000000 		.word	.LANCHOR0
 885              		.cfi_endproc
 886              	.LFE10:
 888              		.section	.text.dfuUploadStarted,"ax",%progbits
 889              		.align	1
 890              		.global	dfuUploadStarted
 891              		.thumb
 892              		.thumb_func
 894              	dfuUploadStarted:
 895              	.LFB11:
 430:dfu.c         **** }
 431:dfu.c         **** 
 432:dfu.c         **** bool dfuUploadStarted() {
 896              		.loc 1 432 0
 897              		.cfi_startproc
 898              		@ args = 0, pretend = 0, frame = 0
 899              		@ frame_needed = 0, uses_anonymous_args = 0
 900              		@ link register save eliminated.
 433:dfu.c         ****     return dfuBusy;
 901              		.loc 1 433 0
 902 0000 014B     		ldr	r3, .L101
 903 0002 1878     		ldrb	r0, [r3]	@ zero_extendqisi2
 434:dfu.c         **** }
 904              		.loc 1 434 0
 905 0004 7047     		bx	lr
 906              	.L102:
 907 0006 00BF     		.align	2
 908              	.L101:
 909 0008 00000000 		.word	.LANCHOR6
 910              		.cfi_endproc
 911              	.LFE11:
 913              		.section	.text.dfuFinishUpload,"ax",%progbits
 914              		.align	1
 915              		.global	dfuFinishUpload
 916              		.thumb
 917              		.thumb_func
 919              	dfuFinishUpload:
 920              	.LFB12:
 435:dfu.c         **** 
 436:dfu.c         **** void dfuFinishUpload() {
 921              		.loc 1 436 0
 922              		.cfi_startproc
 923              		@ Volatile: function does not return.
 924              		@ args = 0, pretend = 0, frame = 0
 925              		@ frame_needed = 0, uses_anonymous_args = 0
 926              		@ link register save eliminated.
 927              	.L104:
 437:dfu.c         ****     while (1)
 438:dfu.c         ****     {
 439:dfu.c         ****         __asm("nop");
 928              		.loc 1 439 0 discriminator 1
 929              	@ 439 "dfu.c" 1
 930 0000 00BF     		nop
 931              	@ 0 "" 2
 932              		.thumb
 933 0002 FDE7     		b	.L104
 934              		.cfi_endproc
 935              	.LFE12:
 937              		.comm	code_copy_lock,1,1
 938              		.global	dfuBusy
 939              		.global	userUploadType
 940              		.comm	wTransferSize,4,4
 941              		.section	.bss.recvBuffer,"aw",%nobits
 942              		.align	2
 943              		.set	.LANCHOR7,. + 0
 946              	recvBuffer:
 947 0000 00000000 		.space	2048
 947      00000000 
 947      00000000 
 947      00000000 
 947      00000000 
 948              		.section	.bss.uploadBlockLen,"aw",%nobits
 949              		.align	1
 950              		.set	.LANCHOR8,. + 0
 953              	uploadBlockLen:
 954 0000 0000     		.space	2
 955              		.section	.bss.thisBlockLen,"aw",%nobits
 956              		.align	1
 957              		.set	.LANCHOR2,. + 0
 960              	thisBlockLen:
 961 0000 0000     		.space	2
 962              		.section	.bss.userFirmwareLen,"aw",%nobits
 963              		.align	2
 964              		.set	.LANCHOR1,. + 0
 967              	userFirmwareLen:
 968 0000 00000000 		.space	4
 969              		.section	.data.userAppEnd,"aw",%progbits
 970              		.align	2
 971              		.set	.LANCHOR4,. + 0
 974              	userAppEnd:
 975 0000 00500020 		.word	536891392
 976              		.section	.bss.userUploadType,"aw",%nobits
 977              		.set	.LANCHOR5,. + 0
 980              	userUploadType:
 981 0000 00       		.space	1
 982              		.section	.bss.dfuAppStatus,"aw",%nobits
 983              		.set	.LANCHOR0,. + 0
 986              	dfuAppStatus:
 987 0000 00000000 		.space	6
 987      0000
 988              		.section	.bss.dfuBusy,"aw",%nobits
 989              		.set	.LANCHOR6,. + 0
 992              	dfuBusy:
 993 0000 00       		.space	1
 994              		.section	.data.userAppAddr,"aw",%progbits
 995              		.align	2
 996              		.set	.LANCHOR3,. + 0
 999              	userAppAddr:
 1000 0000 000C0020 		.word	536873984
 1001              		.text
 1002              	.Letext0:
 1003              		.file 2 "./stm32_lib/stm32f10x_type.h"
 1004              		.file 3 "./usb_lib/usb_core.h"
 1005              		.file 4 "dfu.h"
 1006              		.file 5 "./usb_lib/usb_init.h"
 1007              		.file 6 "usb.h"
 1008              		.file 7 "hardware.h"